; Function Attrs: mustprogress nounwind uwtable
define internal void @_ZN7testing8internal30ValuesInIteratorRangeGeneratorIN11opencv_test12_GLOBAL__N_110MethodTypeEE8IteratorD2Ev(ptr noundef nonnull align 8 captures(none) dereferenceable(32) initializes((0, 8)) %0) unnamed_addr #12 align 2 personality ptr @__gxx_personality_v0 {
  store ptr getelementptr inbounds nuw inrange(-16, 56) (i8, ptr @_ZTVN7testing8internal30ValuesInIteratorRangeGeneratorIN11opencv_test12_GLOBAL__N_110MethodTypeEE8IteratorE, i64 16), ptr %0, align 8, !tbaa !19
  %2 = getelementptr inbounds nuw i8, ptr %0, i64 24
  %3 = load ptr, ptr %2, align 8, !tbaa !213
  %.not.i.i = icmp eq ptr %3, null
  br i1 %.not.i.i, label %_ZN7testing8internal10scoped_ptrIKN11opencv_test12_GLOBAL__N_110MethodTypeEED2Ev.exit, label %4

4:                                                ; preds = %1
  %5 = invoke noundef zeroext i1 @_ZN7testing8internal6IsTrueEb(i1 noundef zeroext true)
          to label %.noexc.i unwind label %11

.noexc.i:                                         ; preds = %4
  br i1 %5, label %6, label %10

6:                                                ; preds = %.noexc.i
  %7 = load ptr, ptr %2, align 8, !tbaa !213
  %8 = icmp eq ptr %7, null
  br i1 %8, label %10, label %9

9:                                                ; preds = %6
  tail call void @_ZdlPv(ptr noundef nonnull %7) #32
  br label %10

10:                                               ; preds = %9, %6, %.noexc.i
  store ptr null, ptr %2, align 8, !tbaa !213
  br label %_ZN7testing8internal10scoped_ptrIKN11opencv_test12_GLOBAL__N_110MethodTypeEED2Ev.exit

11:                                               ; preds = %4
  %12 = landingpad { ptr, i32 }
          catch ptr null
  %13 = extractvalue { ptr, i32 } %12, 0
  tail call void @__clang_call_terminate(ptr %13) #33
  unreachable

_ZN7testing8internal10scoped_ptrIKN11opencv_test12_GLOBAL__N_110MethodTypeEED2Ev.exit: ; preds = %1, %10
  ret void
}